; Function Attrs: nounwind uwtable
define ptr @l_Lean_Compiler_LCNF_FunDecl_forFVarM___rarg___lambda__2(ptr noundef %0, ptr noundef %1, ptr noundef %2, ptr noundef %3, ptr readnone captures(none) %4) local_unnamed_addr #0 {
  %6 = getelementptr inbounds nuw i8, ptr %0, i64 32
  %7 = load ptr, ptr %6, align 8, !tbaa !4
  %8 = ptrtoint ptr %7 to i64
  %9 = and i64 %8, 1
  %.not = icmp eq i64 %9, 0
  br i1 %.not, label %10, label %lean_inc.exit18

10:                                               ; preds = %5
  %.val.i = load i32, ptr %7, align 4, !tbaa !8
  %11 = icmp sgt i32 %.val.i, 0
  br i1 %11, label %12, label %14, !prof !13

12:                                               ; preds = %10
  %13 = add nuw i32 %.val.i, 1
  store i32 %13, ptr %7, align 4, !tbaa !8
  br label %lean_inc.exit18

14:                                               ; preds = %10
  %.not.i = icmp eq i32 %.val.i, 0
  br i1 %.not.i, label %lean_inc.exit18, label %15

15:                                               ; preds = %14
  tail call void @lean_inc_ref_cold(ptr noundef nonnull %7) #4
  br label %lean_inc.exit18

lean_inc.exit18:                                  ; preds = %15, %14, %12, %5
  %16 = ptrtoint ptr %2 to i64
  %17 = and i64 %16, 1
  %.not25 = icmp eq i64 %17, 0
  br i1 %.not25, label %18, label %lean_inc.exit17

18:                                               ; preds = %lean_inc.exit18
  %.val.i19 = load i32, ptr %2, align 4, !tbaa !8
  %19 = icmp sgt i32 %.val.i19, 0
  br i1 %19, label %20, label %22, !prof !13

20:                                               ; preds = %18
  %21 = add nuw i32 %.val.i19, 1
  store i32 %21, ptr %2, align 4, !tbaa !8
  br label %lean_inc.exit17

22:                                               ; preds = %18
  %.not.i20 = icmp eq i32 %.val.i19, 0
  br i1 %.not.i20, label %lean_inc.exit17, label %23

23:                                               ; preds = %22
  tail call void @lean_inc_ref_cold(ptr noundef nonnull %2) #4
  br label %lean_inc.exit17

lean_inc.exit17:                                  ; preds = %23, %22, %20, %lean_inc.exit18
  %24 = ptrtoint ptr %1 to i64
  %25 = and i64 %24, 1
  %.not26 = icmp eq i64 %25, 0
  br i1 %.not26, label %26, label %lean_inc.exit

26:                                               ; preds = %lean_inc.exit17
  %.val.i22 = load i32, ptr %1, align 4, !tbaa !8
  %27 = icmp sgt i32 %.val.i22, 0
  br i1 %27, label %28, label %30, !prof !13

28:                                               ; preds = %26
  %29 = add nuw i32 %.val.i22, 1
  store i32 %29, ptr %1, align 4, !tbaa !8
  br label %lean_inc.exit

30:                                               ; preds = %26
  %.not.i23 = icmp eq i32 %.val.i22, 0
  br i1 %.not.i23, label %lean_inc.exit, label %31

31:                                               ; preds = %30
  tail call void @lean_inc_ref_cold(ptr noundef nonnull %1) #4
  br label %lean_inc.exit

lean_inc.exit:                                    ; preds = %31, %30, %28, %lean_inc.exit17
  %32 = tail call ptr @l_Lean_Compiler_LCNF_Expr_forFVarM___rarg(ptr noundef %1, ptr noundef %2, ptr noundef %7)
  tail call void @lean_inc_heartbeat() #4
  %33 = tail call noalias ptr @mi_malloc_small(i64 noundef 48) #4
  %34 = icmp eq ptr %33, null
  br i1 %34, label %35, label %lean_alloc_closure.exit

35:                                               ; preds = %lean_inc.exit
  tail call void @lean_internal_panic_out_of_memory() #5
  unreachable

lean_alloc_closure.exit:                          ; preds = %lean_inc.exit
  %36 = getelementptr inbounds nuw i8, ptr %33, i64 4
  store i32 1, ptr %33, align 4, !tbaa !8
  store i32 -184549328, ptr %36, align 4
  %37 = getelementptr inbounds nuw i8, ptr %33, i64 8
  store ptr @l_Lean_Compiler_LCNF_FunDecl_forFVarM___rarg___lambda__1___boxed, ptr %37, align 8, !tbaa !4
  %38 = getelementptr inbounds nuw i8, ptr %33, i64 16
  store i16 4, ptr %38, align 8, !tbaa !11
  %39 = getelementptr inbounds nuw i8, ptr %33, i64 18
  store i16 3, ptr %39, align 2, !tbaa !11
  %40 = getelementptr inbounds nuw i8, ptr %33, i64 24
  store ptr %0, ptr %40, align 8, !tbaa !4
  %41 = getelementptr inbounds nuw i8, ptr %33, i64 32
  store ptr %1, ptr %41, align 8, !tbaa !4
  %42 = getelementptr inbounds nuw i8, ptr %33, i64 40
  store ptr %2, ptr %42, align 8, !tbaa !4
  %43 = tail call ptr @lean_apply_4(ptr noundef %3, ptr noundef nonnull inttoptr (i64 1 to ptr), ptr noundef nonnull inttoptr (i64 1 to ptr), ptr noundef %32, ptr noundef nonnull %33) #4
  ret ptr %43
}